target datalayout = "e-m:e-p270:32:32-p271:32:32-p272:64:64-i64:64-i128:128-f80:128-n8:16:32:64-S128"
target triple = "x86_64-unknown-linux-gnu"

%"struct.std::pair.9" = type <{ ptr, i32, [4 x i8] }>
%"class.google::protobuf::internal::EpsCopyInputStream" = type { ptr, ptr, ptr, i32, i32, ptr, [32 x i8], i64, i32, i32 }
%"class.google::protobuf::internal::EpsCopyInputStream::LimitToken" = type { i32 }
%"class.google::protobuf::internal::ParseContext" = type { %"class.google::protobuf::internal::EpsCopyInputStream", i32, i32, %"struct.google::protobuf::internal::ParseContext::Data" }
%"struct.google::protobuf::internal::ParseContext::Data" = type { ptr, ptr }

; Function Attrs: mustprogress nounwind uwtable
define linkonce_odr hidden void @_ZNSt4pairIPKciEC2IDniTnNSt9enable_ifIXaaclsr5_PCCPE22_MoveConstructiblePairIT_T0_EEclsr5_PCCPE30_ImplicitlyMoveConvertiblePairIS5_S6_EEEbE4typeELb1EEEOS5_OS6_(ptr noundef nonnull align 8 dereferenceable(12) %this, ptr noundef nonnull align 8 dereferenceable(8) %__x, ptr noundef nonnull align 4 dereferenceable(4) %__y) unnamed_addr #5 comdat align 2 {
entry:
  %this.addr = alloca ptr, align 8
  %__x.addr = alloca ptr, align 8
  %__y.addr = alloca ptr, align 8
  store ptr %this, ptr %this.addr, align 8
  store ptr %__x, ptr %__x.addr, align 8
  store ptr %__y, ptr %__y.addr, align 8
  %this1 = load ptr, ptr %this.addr, align 8
  %first = getelementptr inbounds %"struct.std::pair.9", ptr %this1, i32 0, i32 0
  store ptr null, ptr %first, align 8
  %second = getelementptr inbounds %"struct.std::pair.9", ptr %this1, i32 0, i32 1
  %0 = load ptr, ptr %__y.addr, align 8
  %1 = load i32, ptr %0, align 4
  store i32 %1, ptr %second, align 8
  ret void
}

; Function Attrs: mustprogress nounwind uwtable
define linkonce_odr hidden void @_ZNSt4pairIPKciEC2IS1_RjTnNSt9enable_ifIXaaclsr5_PCCPE22_MoveConstructiblePairIT_T0_EEclsr5_PCCPE30_ImplicitlyMoveConvertiblePairIS6_S7_EEEbE4typeELb1EEEOS6_OS7_(ptr noundef nonnull align 8 dereferenceable(12) %this, ptr noundef nonnull align 8 dereferenceable(8) %__x, ptr noundef nonnull align 4 dereferenceable(4) %__y) unnamed_addr #5 comdat align 2 {
entry:
  %this.addr = alloca ptr, align 8
  %__x.addr = alloca ptr, align 8
  %__y.addr = alloca ptr, align 8
  store ptr %this, ptr %this.addr, align 8
  store ptr %__x, ptr %__x.addr, align 8
  store ptr %__y, ptr %__y.addr, align 8
  %this1 = load ptr, ptr %this.addr, align 8
  %first = getelementptr inbounds %"struct.std::pair.9", ptr %this1, i32 0, i32 0
  %0 = load ptr, ptr %__x.addr, align 8
  %1 = load ptr, ptr %0, align 8
  store ptr %1, ptr %first, align 8
  %second = getelementptr inbounds %"struct.std::pair.9", ptr %this1, i32 0, i32 1
  %2 = load ptr, ptr %__y.addr, align 8
  %3 = load i32, ptr %2, align 4
  store i32 %3, ptr %second, align 8
  ret void
}

; Function Attrs: mustprogress nounwind uwtable
define linkonce_odr hidden void @_ZN6google8protobuf8internal18EpsCopyInputStream10LimitTokenC2Ei(ptr noundef nonnull align 4 dereferenceable(4) %this, i32 noundef %token) unnamed_addr #5 comdat align 2 {
entry:
  %this.addr = alloca ptr, align 8
  %token.addr = alloca i32, align 4
  store ptr %this, ptr %this.addr, align 8
  store i32 %token, ptr %token.addr, align 4
  %this1 = load ptr, ptr %this.addr, align 8
  %token_ = getelementptr inbounds %"class.google::protobuf::internal::EpsCopyInputStream::LimitToken", ptr %this1, i32 0, i32 0
  %0 = load i32, ptr %token.addr, align 4
  store i32 %0, ptr %token_, align 4
  ret void
}

; Function Attrs: mustprogress nounwind uwtable
define linkonce_odr noundef nonnull align 4 dereferenceable(4) ptr @_ZSt3minIiERKT_S2_S2_(ptr noundef nonnull align 4 dereferenceable(4) %__a, ptr noundef nonnull align 4 dereferenceable(4) %__b) #5 comdat {
entry:
  %retval = alloca ptr, align 8
  %__a.addr = alloca ptr, align 8
  %__b.addr = alloca ptr, align 8
  store ptr %__a, ptr %__a.addr, align 8
  store ptr %__b, ptr %__b.addr, align 8
  %0 = load ptr, ptr %__b.addr, align 8
  %1 = load i32, ptr %0, align 4
  %2 = load ptr, ptr %__a.addr, align 8
  %3 = load i32, ptr %2, align 4
  %cmp = icmp slt i32 %1, %3
  br i1 %cmp, label %if.then, label %if.end

if.then:                                          ; preds = %entry
  %4 = load ptr, ptr %__b.addr, align 8
  store ptr %4, ptr %retval, align 8
  br label %return

if.end:                                           ; preds = %entry
  %5 = load ptr, ptr %__a.addr, align 8
  store ptr %5, ptr %retval, align 8
  br label %return

return:                                           ; preds = %if.end, %if.then
  %6 = load ptr, ptr %retval, align 8
  ret ptr %6
}

; Function Attrs: mustprogress uwtable
define { ptr, i32 } @_ZN6google8protobuf8internal16ReadSizeFallbackEPKcj(ptr noundef %p, i32 noundef %res) #4 {
entry:
  %retval = alloca %"struct.std::pair.9", align 8
  %p.addr = alloca ptr, align 8
  %res.addr = alloca i32, align 4
  %i = alloca i32, align 4
  %byte = alloca i32, align 4
  %ref.tmp = alloca ptr, align 8
  %byte4 = alloca i32, align 4
  %ref.tmp10 = alloca ptr, align 8
  %ref.tmp11 = alloca i32, align 4
  %ref.tmp19 = alloca ptr, align 8
  %ref.tmp20 = alloca i32, align 4
  %ref.tmp22 = alloca ptr, align 8
  store ptr %p, ptr %p.addr, align 8
  store i32 %res, ptr %res.addr, align 4
  store i32 1, ptr %i, align 4
  br label %for.cond

for.cond:                                         ; preds = %for.inc, %entry
  %0 = load i32, ptr %i, align 4
  %cmp = icmp ult i32 %0, 4
  br i1 %cmp, label %for.body, label %for.end

for.body:                                         ; preds = %for.cond
  %1 = load ptr, ptr %p.addr, align 8
  %2 = load i32, ptr %i, align 4
  %idxprom = zext i32 %2 to i64
  %arrayidx = getelementptr inbounds i8, ptr %1, i64 %idxprom
  %3 = load i8, ptr %arrayidx, align 1
  %conv = zext i8 %3 to i32
  store i32 %conv, ptr %byte, align 4
  %4 = load i32, ptr %byte, align 4
  %sub = sub i32 %4, 1
  %5 = load i32, ptr %i, align 4
  %mul = mul i32 7, %5
  %shl = shl i32 %sub, %mul
  %6 = load i32, ptr %res.addr, align 4
  %add = add i32 %6, %shl
  store i32 %add, ptr %res.addr, align 4
  %7 = load i32, ptr %byte, align 4
  %cmp1 = icmp ult i32 %7, 128
  br i1 %cmp1, label %if.then, label %if.end

if.then:                                          ; preds = %for.body
  %8 = load ptr, ptr %p.addr, align 8
  %9 = load i32, ptr %i, align 4
  %idx.ext = zext i32 %9 to i64
  %add.ptr = getelementptr inbounds i8, ptr %8, i64 %idx.ext
  %add.ptr3 = getelementptr inbounds i8, ptr %add.ptr, i64 1
  store ptr %add.ptr3, ptr %ref.tmp, align 8
  call void @_ZNSt4pairIPKciEC2IS1_RjTnNSt9enable_ifIXaaclsr5_PCCPE22_MoveConstructiblePairIT_T0_EEclsr5_PCCPE30_ImplicitlyMoveConvertiblePairIS6_S7_EEEbE4typeELb1EEEOS6_OS7_(ptr noundef nonnull align 8 dereferenceable(12) %retval, ptr noundef nonnull align 8 dereferenceable(8) %ref.tmp, ptr noundef nonnull align 4 dereferenceable(4) %res.addr)
  br label %return

if.end:                                           ; preds = %for.body
  br label %for.inc

for.inc:                                          ; preds = %if.end
  %10 = load i32, ptr %i, align 4
  %inc = add i32 %10, 1
  store i32 %inc, ptr %i, align 4
  br label %for.cond, !llvm.loop !24

for.end:                                          ; preds = %for.cond
  %11 = load ptr, ptr %p.addr, align 8
  %arrayidx5 = getelementptr inbounds i8, ptr %11, i64 4
  %12 = load i8, ptr %arrayidx5, align 1
  %conv6 = zext i8 %12 to i32
  store i32 %conv6, ptr %byte4, align 4
  %13 = load i32, ptr %byte4, align 4
  %cmp7 = icmp uge i32 %13, 8
  br i1 %cmp7, label %if.then9, label %if.end12

if.then9:                                         ; preds = %for.end
  store ptr null, ptr %ref.tmp10, align 8
  store i32 0, ptr %ref.tmp11, align 4
  call void @_ZNSt4pairIPKciEC2IDniTnNSt9enable_ifIXaaclsr5_PCCPE22_MoveConstructiblePairIT_T0_EEclsr5_PCCPE30_ImplicitlyMoveConvertiblePairIS5_S6_EEEbE4typeELb1EEEOS5_OS6_(ptr noundef nonnull align 8 dereferenceable(12) %retval, ptr noundef nonnull align 8 dereferenceable(8) %ref.tmp10, ptr noundef nonnull align 4 dereferenceable(4) %ref.tmp11)
  br label %return

if.end12:                                         ; preds = %for.end
  %14 = load i32, ptr %byte4, align 4
  %sub13 = sub i32 %14, 1
  %shl14 = shl i32 %sub13, 28
  %15 = load i32, ptr %res.addr, align 4
  %add15 = add i32 %15, %shl14
  store i32 %add15, ptr %res.addr, align 4
  %16 = load i32, ptr %res.addr, align 4
  %cmp16 = icmp ugt i32 %16, 2147483631
  br i1 %cmp16, label %if.then18, label %if.end21

if.then18:                                        ; preds = %if.end12
  store ptr null, ptr %ref.tmp19, align 8
  store i32 0, ptr %ref.tmp20, align 4
  call void @_ZNSt4pairIPKciEC2IDniTnNSt9enable_ifIXaaclsr5_PCCPE22_MoveConstructiblePairIT_T0_EEclsr5_PCCPE30_ImplicitlyMoveConvertiblePairIS5_S6_EEEbE4typeELb1EEEOS5_OS6_(ptr noundef nonnull align 8 dereferenceable(12) %retval, ptr noundef nonnull align 8 dereferenceable(8) %ref.tmp19, ptr noundef nonnull align 4 dereferenceable(4) %ref.tmp20)
  br label %return

if.end21:                                         ; preds = %if.end12
  %17 = load ptr, ptr %p.addr, align 8
  %add.ptr23 = getelementptr inbounds i8, ptr %17, i64 5
  store ptr %add.ptr23, ptr %ref.tmp22, align 8
  call void @_ZNSt4pairIPKciEC2IS1_RjTnNSt9enable_ifIXaaclsr5_PCCPE22_MoveConstructiblePairIT_T0_EEclsr5_PCCPE30_ImplicitlyMoveConvertiblePairIS6_S7_EEEbE4typeELb1EEEOS6_OS7_(ptr noundef nonnull align 8 dereferenceable(12) %retval, ptr noundef nonnull align 8 dereferenceable(8) %ref.tmp22, ptr noundef nonnull align 4 dereferenceable(4) %res.addr)
  br label %return

return:                                           ; preds = %if.end21, %if.then18, %if.then9, %if.then
  %18 = load { ptr, i32 }, ptr %retval, align 8
  ret { ptr, i32 } %18
}

; Function Attrs: mustprogress nounwind uwtable
define linkonce_odr hidden void @_ZN6google8protobuf8internal18EpsCopyInputStream10LimitTokenD2Ev(ptr noundef nonnull align 4 dereferenceable(4) %this) unnamed_addr #5 comdat align 2 {
entry:
  %this.addr = alloca ptr, align 8
  store ptr %this, ptr %this.addr, align 8
  ret void
}

; Function Attrs: mustprogress nounwind uwtable
define linkonce_odr hidden noundef nonnull align 4 dereferenceable(4) ptr @_ZN6google8protobuf8internal18EpsCopyInputStream10LimitTokenaSEOS3_(ptr noundef nonnull align 4 dereferenceable(4) %this, ptr noundef nonnull align 4 dereferenceable(4) %other) #5 comdat align 2 {
entry:
  %this.addr = alloca ptr, align 8
  %other.addr = alloca ptr, align 8
  store ptr %this, ptr %this.addr, align 8
  store ptr %other, ptr %other.addr, align 8
  %this1 = load ptr, ptr %this.addr, align 8
  %0 = load ptr, ptr %other.addr, align 8
  %token_ = getelementptr inbounds %"class.google::protobuf::internal::EpsCopyInputStream::LimitToken", ptr %0, i32 0, i32 0
  %1 = load i32, ptr %token_, align 4
  %token_2 = getelementptr inbounds %"class.google::protobuf::internal::EpsCopyInputStream::LimitToken", ptr %this1, i32 0, i32 0
  store i32 %1, ptr %token_2, align 4
  ret ptr %this1
}

; Function Attrs: mustprogress uwtable
define linkonce_odr hidden void @_ZN6google8protobuf8internal18EpsCopyInputStream9PushLimitEPKci(ptr noalias sret(%"class.google::protobuf::internal::EpsCopyInputStream::LimitToken") align 4 %agg.result, ptr noundef nonnull align 8 dereferenceable(88) %this, ptr noundef %ptr, i32 noundef %limit) #4 comdat align 2 {
entry:
  %result.ptr = alloca ptr, align 8
  %this.addr = alloca ptr, align 8
  %ptr.addr = alloca ptr, align 8
  %limit.addr = alloca i32, align 4
  %ref.tmp = alloca i32, align 4
  %old_limit = alloca i32, align 4
  store ptr %agg.result, ptr %result.ptr, align 8
  store ptr %this, ptr %this.addr, align 8
  store ptr %ptr, ptr %ptr.addr, align 8
  store i32 %limit, ptr %limit.addr, align 4
  %this1 = load ptr, ptr %this.addr, align 8
  %0 = load ptr, ptr %ptr.addr, align 8
  %buffer_end_ = getelementptr inbounds %"class.google::protobuf::internal::EpsCopyInputStream", ptr %this1, i32 0, i32 1
  %1 = load ptr, ptr %buffer_end_, align 8
  %sub.ptr.lhs.cast = ptrtoint ptr %0 to i64
  %sub.ptr.rhs.cast = ptrtoint ptr %1 to i64
  %sub.ptr.sub = sub i64 %sub.ptr.lhs.cast, %sub.ptr.rhs.cast
  %conv = trunc i64 %sub.ptr.sub to i32
  %2 = load i32, ptr %limit.addr, align 4
  %add = add nsw i32 %2, %conv
  store i32 %add, ptr %limit.addr, align 4
  %buffer_end_2 = getelementptr inbounds %"class.google::protobuf::internal::EpsCopyInputStream", ptr %this1, i32 0, i32 1
  %3 = load ptr, ptr %buffer_end_2, align 8
  store i32 0, ptr %ref.tmp, align 4
  %call = call noundef nonnull align 4 dereferenceable(4) ptr @_ZSt3minIiERKT_S2_S2_(ptr noundef nonnull align 4 dereferenceable(4) %ref.tmp, ptr noundef nonnull align 4 dereferenceable(4) %limit.addr)
  %4 = load i32, ptr %call, align 4
  %idx.ext = sext i32 %4 to i64
  %add.ptr = getelementptr inbounds i8, ptr %3, i64 %idx.ext
  %limit_end_ = getelementptr inbounds %"class.google::protobuf::internal::EpsCopyInputStream", ptr %this1, i32 0, i32 0
  store ptr %add.ptr, ptr %limit_end_, align 8
  %limit_ = getelementptr inbounds %"class.google::protobuf::internal::EpsCopyInputStream", ptr %this1, i32 0, i32 4
  %5 = load i32, ptr %limit_, align 4
  store i32 %5, ptr %old_limit, align 4
  %6 = load i32, ptr %limit.addr, align 4
  %limit_3 = getelementptr inbounds %"class.google::protobuf::internal::EpsCopyInputStream", ptr %this1, i32 0, i32 4
  store i32 %6, ptr %limit_3, align 4
  %7 = load i32, ptr %old_limit, align 4
  %8 = load i32, ptr %limit.addr, align 4
  %sub = sub nsw i32 %7, %8
  call void @_ZN6google8protobuf8internal18EpsCopyInputStream10LimitTokenC2Ei(ptr noundef nonnull align 4 dereferenceable(4) %agg.result, i32 noundef %sub)
  ret void
}

; Function Attrs: mustprogress uwtable
define linkonce_odr hidden noundef i32 @_ZN6google8protobuf8internal8ReadSizeEPPKc(ptr noundef %pp) #4 comdat {
entry:
  %retval = alloca i32, align 4
  %pp.addr = alloca ptr, align 8
  %p = alloca ptr, align 8
  %res = alloca i32, align 4
  %x = alloca %"struct.std::pair.9", align 8
  store ptr %pp, ptr %pp.addr, align 8
  %0 = load ptr, ptr %pp.addr, align 8
  %1 = load ptr, ptr %0, align 8
  store ptr %1, ptr %p, align 8
  %2 = load ptr, ptr %p, align 8
  %arrayidx = getelementptr inbounds i8, ptr %2, i64 0
  %3 = load i8, ptr %arrayidx, align 1
  %conv = zext i8 %3 to i32
  store i32 %conv, ptr %res, align 4
  %4 = load i32, ptr %res, align 4
  %cmp = icmp ult i32 %4, 128
  br i1 %cmp, label %if.then, label %if.end

if.then:                                          ; preds = %entry
  %5 = load ptr, ptr %p, align 8
  %add.ptr = getelementptr inbounds i8, ptr %5, i64 1
  %6 = load ptr, ptr %pp.addr, align 8
  store ptr %add.ptr, ptr %6, align 8
  %7 = load i32, ptr %res, align 4
  store i32 %7, ptr %retval, align 4
  br label %return

if.end:                                           ; preds = %entry
  %8 = load ptr, ptr %p, align 8
  %9 = load i32, ptr %res, align 4
  %call = call { ptr, i32 } @_ZN6google8protobuf8internal16ReadSizeFallbackEPKcj(ptr noundef %8, i32 noundef %9)
  %10 = getelementptr inbounds { ptr, i32 }, ptr %x, i32 0, i32 0
  %11 = extractvalue { ptr, i32 } %call, 0
  store ptr %11, ptr %10, align 8
  %12 = getelementptr inbounds { ptr, i32 }, ptr %x, i32 0, i32 1
  %13 = extractvalue { ptr, i32 } %call, 1
  store i32 %13, ptr %12, align 8
  %first = getelementptr inbounds %"struct.std::pair.9", ptr %x, i32 0, i32 0
  %14 = load ptr, ptr %first, align 8
  %15 = load ptr, ptr %pp.addr, align 8
  store ptr %14, ptr %15, align 8
  %second = getelementptr inbounds %"struct.std::pair.9", ptr %x, i32 0, i32 1
  %16 = load i32, ptr %second, align 8
  store i32 %16, ptr %retval, align 4
  br label %return

return:                                           ; preds = %if.end, %if.then
  %17 = load i32, ptr %retval, align 4
  ret i32 %17
}

; Function Attrs: mustprogress uwtable
define noundef ptr @_ZN6google8protobuf8internal12ParseContext28ReadSizeAndPushLimitAndDepthEPKcPNS1_18EpsCopyInputStream10LimitTokenE(ptr noundef nonnull align 8 dereferenceable(112) %this, ptr noundef %ptr, ptr noundef %old_limit) #4 align 2 personality ptr @__gxx_personality_v0 {
entry:
  %retval.i = alloca ptr, align 8
  %this.addr.i = alloca ptr, align 8
  %ptr.addr.i = alloca ptr, align 8
  %old_limit.addr.i = alloca ptr, align 8
  %size.i = alloca i32, align 4
  %ref.tmp.i = alloca %"class.google::protobuf::internal::EpsCopyInputStream::LimitToken", align 4
  %exn.slot.i = alloca ptr, align 8
  %ehselector.slot.i = alloca i32, align 4
  %this.addr = alloca ptr, align 8
  %ptr.addr = alloca ptr, align 8
  %old_limit.addr = alloca ptr, align 8
  store ptr %this, ptr %this.addr, align 8
  store ptr %ptr, ptr %ptr.addr, align 8
  store ptr %old_limit, ptr %old_limit.addr, align 8
  %this1 = load ptr, ptr %this.addr, align 8
  %0 = load ptr, ptr %ptr.addr, align 8
  %1 = load ptr, ptr %old_limit.addr, align 8
  store ptr %this1, ptr %this.addr.i, align 8
  store ptr %0, ptr %ptr.addr.i, align 8
  store ptr %1, ptr %old_limit.addr.i, align 8
  %this1.i = load ptr, ptr %this.addr.i, align 8
  %call.i = call noundef i32 @_ZN6google8protobuf8internal8ReadSizeEPPKc(ptr noundef %ptr.addr.i)
  store i32 %call.i, ptr %size.i, align 4
  %2 = load ptr, ptr %ptr.addr.i, align 8
  %tobool.i = icmp ne ptr %2, null
  %lnot.i = xor i1 %tobool.i, true
  br i1 %lnot.i, label %if.then.i, label %lor.lhs.false.i

lor.lhs.false.i:                                  ; preds = %entry
  %depth_.i = getelementptr inbounds %"class.google::protobuf::internal::ParseContext", ptr %this1.i, i32 0, i32 1
  %3 = load i32, ptr %depth_.i, align 8
  %cmp.i = icmp sle i32 %3, 0
  br i1 %cmp.i, label %if.then.i, label %if.end.i

if.then.i:                                        ; preds = %lor.lhs.false.i, %entry
  store ptr null, ptr %retval.i, align 8
  br label %_ZN6google8protobuf8internal12ParseContext35ReadSizeAndPushLimitAndDepthInlinedEPKcPNS1_18EpsCopyInputStream10LimitTokenE.exit

if.end.i:                                         ; preds = %lor.lhs.false.i
  %4 = load ptr, ptr %ptr.addr.i, align 8
  %5 = load i32, ptr %size.i, align 4
  call void @_ZN6google8protobuf8internal18EpsCopyInputStream9PushLimitEPKci(ptr sret(%"class.google::protobuf::internal::EpsCopyInputStream::LimitToken") align 4 %ref.tmp.i, ptr noundef nonnull align 8 dereferenceable(88) %this1.i, ptr noundef %4, i32 noundef %5)
  %6 = load ptr, ptr %old_limit.addr.i, align 8
  %call2.i = invoke noundef nonnull align 4 dereferenceable(4) ptr @_ZN6google8protobuf8internal18EpsCopyInputStream10LimitTokenaSEOS3_(ptr noundef nonnull align 4 dereferenceable(4) %6, ptr noundef nonnull align 4 dereferenceable(4) %ref.tmp.i)
          to label %invoke.cont.i unwind label %lpad.i

invoke.cont.i:                                    ; preds = %if.end.i
  call void @_ZN6google8protobuf8internal18EpsCopyInputStream10LimitTokenD2Ev(ptr noundef nonnull align 4 dereferenceable(4) %ref.tmp.i) #3
  %depth_3.i = getelementptr inbounds %"class.google::protobuf::internal::ParseContext", ptr %this1.i, i32 0, i32 1
  %7 = load i32, ptr %depth_3.i, align 8
  %dec.i = add nsw i32 %7, -1
  store i32 %dec.i, ptr %depth_3.i, align 8
  %8 = load ptr, ptr %ptr.addr.i, align 8
  store ptr %8, ptr %retval.i, align 8
  br label %_ZN6google8protobuf8internal12ParseContext35ReadSizeAndPushLimitAndDepthInlinedEPKcPNS1_18EpsCopyInputStream10LimitTokenE.exit

lpad.i:                                           ; preds = %if.end.i
  %9 = landingpad { ptr, i32 }
          cleanup
  %10 = extractvalue { ptr, i32 } %9, 0
  store ptr %10, ptr %exn.slot.i, align 8
  %11 = extractvalue { ptr, i32 } %9, 1
  store i32 %11, ptr %ehselector.slot.i, align 4
  call void @_ZN6google8protobuf8internal18EpsCopyInputStream10LimitTokenD2Ev(ptr noundef nonnull align 4 dereferenceable(4) %ref.tmp.i) #3
  %exn.i = load ptr, ptr %exn.slot.i, align 8
  %sel.i = load i32, ptr %ehselector.slot.i, align 4
  %lpad.val.i = insertvalue { ptr, i32 } poison, ptr %exn.i, 0
  %lpad.val4.i = insertvalue { ptr, i32 } %lpad.val.i, i32 %sel.i, 1
  resume { ptr, i32 } %lpad.val4.i

_ZN6google8protobuf8internal12ParseContext35ReadSizeAndPushLimitAndDepthInlinedEPKcPNS1_18EpsCopyInputStream10LimitTokenE.exit: ; preds = %invoke.cont.i, %if.then.i
  %12 = load ptr, ptr %retval.i, align 8
  ret ptr %12
}