; Function Attrs: mustprogress nofree norecurse nosync nounwind memory(argmem: readwrite) uwtable
define noundef ptr @_ZN6google8protobuf8internal12ParseContext28ReadSizeAndPushLimitAndDepthEPKcPNS1_18EpsCopyInputStream10LimitTokenE(ptr noundef nonnull align 8 captures(none) dereferenceable(112) %this, ptr noundef %ptr, ptr noundef writeonly captures(none) %old_limit) local_unnamed_addr #6 align 2 personality ptr @__gxx_personality_v0 {
entry:
  %0 = load i8, ptr %ptr, align 1
  %conv.i = zext i8 %0 to i32
  %cmp.i1 = icmp sgt i8 %0, -1
  br i1 %cmp.i1, label %if.then.i, label %for.body.i.i

if.then.i:                                        ; preds = %entry
  %add.ptr.i = getelementptr inbounds nuw i8, ptr %ptr, i64 1
  br label %lor.lhs.false.i

for.cond.i.i:                                     ; preds = %for.body.i.i
  %indvars.iv.next.i.i = add nuw nsw i64 %indvars.iv.i.i, 1
  %exitcond.not.i.i = icmp eq i64 %indvars.iv.next.i.i, 4
  br i1 %exitcond.not.i.i, label %for.end.i.i, label %for.body.i.i, !llvm.loop !7

for.body.i.i:                                     ; preds = %entry, %for.cond.i.i
  %indvars.iv.i.i = phi i64 [ %indvars.iv.next.i.i, %for.cond.i.i ], [ 1, %entry ]
  %res.addr.018.i.i = phi i32 [ %add.i.i, %for.cond.i.i ], [ %conv.i, %entry ]
  %arrayidx.i.i = getelementptr inbounds nuw i8, ptr %ptr, i64 %indvars.iv.i.i
  %1 = load i8, ptr %arrayidx.i.i, align 1
  %conv.i.i = zext i8 %1 to i32
  %sub.i.i = add nsw i32 %conv.i.i, -1
  %2 = trunc i64 %indvars.iv.i.i to i32
  %3 = mul i32 %2, 7
  %shl.i.i = shl nsw i32 %sub.i.i, %3
  %add.i.i = add i32 %shl.i.i, %res.addr.018.i.i
  %cmp1.i.i = icmp sgt i8 %1, -1
  br i1 %cmp1.i.i, label %if.then.i.i, label %for.cond.i.i

if.then.i.i:                                      ; preds = %for.body.i.i
  %arrayidx.i.i.le = getelementptr inbounds nuw i8, ptr %ptr, i64 %indvars.iv.i.i
  %add.ptr3.i.i = getelementptr inbounds nuw i8, ptr %arrayidx.i.i.le, i64 1
  br label %lor.lhs.false.i

for.end.i.i:                                      ; preds = %for.cond.i.i
  %arrayidx5.i.i = getelementptr inbounds nuw i8, ptr %ptr, i64 4
  %4 = load i8, ptr %arrayidx5.i.i, align 1
  %cmp7.i.i = icmp ugt i8 %4, 7
  br i1 %cmp7.i.i, label %_ZN6google8protobuf8internal12ParseContext35ReadSizeAndPushLimitAndDepthInlinedEPKcPNS1_18EpsCopyInputStream10LimitTokenE.exit, label %if.end12.i.i

if.end12.i.i:                                     ; preds = %for.end.i.i
  %conv6.i.i = zext nneg i8 %4 to i32
  %sub13.i.i = shl nuw nsw i32 %conv6.i.i, 28
  %shl14.i.i = add i32 %add.i.i, -268435456
  %add15.i.i = add i32 %shl14.i.i, %sub13.i.i
  %cmp16.i.i = icmp ugt i32 %add15.i.i, 2147483631
  %add.ptr23.i.i = getelementptr inbounds nuw i8, ptr %ptr, i64 5
  br i1 %cmp16.i.i, label %_ZN6google8protobuf8internal12ParseContext35ReadSizeAndPushLimitAndDepthInlinedEPKcPNS1_18EpsCopyInputStream10LimitTokenE.exit, label %lor.lhs.false.i

lor.lhs.false.i:                                  ; preds = %if.then.i, %if.then.i.i, %if.end12.i.i
  %storemerge.i.ph = phi ptr [ %add.ptr23.i.i, %if.end12.i.i ], [ %add.ptr3.i.i, %if.then.i.i ], [ %add.ptr.i, %if.then.i ]
  %retval.0.i.ph = phi i32 [ %add15.i.i, %if.end12.i.i ], [ %add.i.i, %if.then.i.i ], [ %conv.i, %if.then.i ]
  %depth_.i = getelementptr inbounds nuw i8, ptr %this, i64 88
  %5 = load i32, ptr %depth_.i, align 8
  %cmp.i = icmp slt i32 %5, 1
  br i1 %cmp.i, label %_ZN6google8protobuf8internal12ParseContext35ReadSizeAndPushLimitAndDepthInlinedEPKcPNS1_18EpsCopyInputStream10LimitTokenE.exit, label %if.end.i

if.end.i:                                         ; preds = %lor.lhs.false.i
  %buffer_end_.i = getelementptr inbounds nuw i8, ptr %this, i64 8
  %6 = load ptr, ptr %buffer_end_.i, align 8, !noalias !15
  %sub.ptr.lhs.cast.i = ptrtoint ptr %storemerge.i.ph to i64
  %sub.ptr.rhs.cast.i = ptrtoint ptr %6 to i64
  %sub.ptr.sub.i = sub i64 %sub.ptr.lhs.cast.i, %sub.ptr.rhs.cast.i
  %conv.i2 = trunc i64 %sub.ptr.sub.i to i32
  %add.i = add nsw i32 %retval.0.i.ph, %conv.i2
  %.sroa.speculated.i = tail call i32 @llvm.smin.i32(i32 %add.i, i32 0)
  %idx.ext.i = sext i32 %.sroa.speculated.i to i64
  %add.ptr.i3 = getelementptr inbounds i8, ptr %6, i64 %idx.ext.i
  store ptr %add.ptr.i3, ptr %this, align 8, !noalias !15
  %limit_.i = getelementptr inbounds nuw i8, ptr %this, i64 28
  %7 = load i32, ptr %limit_.i, align 4, !noalias !15
  store i32 %add.i, ptr %limit_.i, align 4, !noalias !15
  %sub.i = sub nsw i32 %7, %add.i
  store i32 %sub.i, ptr %old_limit, align 4
  %8 = load i32, ptr %depth_.i, align 8
  %dec.i = add nsw i32 %8, -1
  store i32 %dec.i, ptr %depth_.i, align 8
  br label %_ZN6google8protobuf8internal12ParseContext35ReadSizeAndPushLimitAndDepthInlinedEPKcPNS1_18EpsCopyInputStream10LimitTokenE.exit

_ZN6google8protobuf8internal12ParseContext35ReadSizeAndPushLimitAndDepthInlinedEPKcPNS1_18EpsCopyInputStream10LimitTokenE.exit: ; preds = %if.end12.i.i, %for.end.i.i, %lor.lhs.false.i, %if.end.i
  %retval.i.0 = phi ptr [ %storemerge.i.ph, %if.end.i ], [ null, %lor.lhs.false.i ], [ null, %for.end.i.i ], [ null, %if.end12.i.i ]
  ret ptr %retval.i.0
}